target datalayout = "e-m:e-p270:32:32-p271:32:32-p272:64:64-i64:64-i128:128-f80:128-n8:16:32:64-S128"
target triple = "x86_64-pc-linux-gnu"

%struct.anon = type { ptr, ptr, i32, i32, i32, i32, ptr, i64, i64, i64, i32, ptr, i32, i32, i32, i32, i32, ptr, i32, i32, ptr, ptr, i32, i64, i64, ptr, ptr, ptr, ptr, i32, ptr, ptr, ptr, i32, i32, ptr, i64, i64, i32, i32, ptr, ptr, i32, ptr }
%struct.Screen = type { ptr, ptr, i64, i32, i32, i32, i32, i32, ptr, i32, ptr, ptr, i64, i64, i64, i32, i32, i32, i32, i64 }

@awt_display = hidden global ptr null, align 8

; Function Attrs: nounwind uwtable
define double @Java_sun_awt_X11GraphicsConfig_getYResolution(ptr noundef %0, ptr noundef %1, i32 noundef %2) #0 {
  %4 = alloca ptr, align 8
  %5 = alloca ptr, align 8
  %6 = alloca i32, align 4
  store ptr %0, ptr %4, align 8
  store ptr %1, ptr %5, align 8
  store i32 %2, ptr %6, align 4
  %7 = load ptr, ptr @awt_display, align 8
  %8 = getelementptr inbounds %struct.anon, ptr %7, i32 0, i32 35
  %9 = load ptr, ptr %8, align 8
  %10 = load i32, ptr %6, align 4
  %11 = sext i32 %10 to i64
  %12 = getelementptr inbounds %struct.Screen, ptr %9, i64 %11
  %13 = getelementptr inbounds %struct.Screen, ptr %12, i32 0, i32 4
  %14 = load i32, ptr %13, align 4
  %15 = sitofp i32 %14 to double
  %16 = fmul double %15, 2.540000e+01
  %17 = load ptr, ptr @awt_display, align 8
  %18 = getelementptr inbounds %struct.anon, ptr %17, i32 0, i32 35
  %19 = load ptr, ptr %18, align 8
  %20 = load i32, ptr %6, align 4
  %21 = sext i32 %20 to i64
  %22 = getelementptr inbounds %struct.Screen, ptr %19, i64 %21
  %23 = getelementptr inbounds %struct.Screen, ptr %22, i32 0, i32 6
  %24 = load i32, ptr %23, align 4
  %25 = sitofp i32 %24 to double
  %26 = fdiv double %16, %25
  ret double %26
}