; Function Attrs: mustprogress nofree norecurse nosync nounwind willreturn memory(read, inaccessiblemem: none) uwtable
define double @Java_sun_awt_X11GraphicsConfig_getYResolution(ptr nocapture noundef readnone %0, ptr nocapture noundef readnone %1, i32 noundef %2) local_unnamed_addr #5 {
  %4 = load ptr, ptr @awt_display, align 8
  %5 = getelementptr inbounds i8, ptr %4, i64 232
  %6 = load ptr, ptr %5, align 8
  %7 = sext i32 %2 to i64
  %8 = getelementptr inbounds %struct.Screen, ptr %6, i64 %7
  %9 = getelementptr inbounds i8, ptr %8, i64 28
  %10 = load i32, ptr %9, align 4
  %11 = sitofp i32 %10 to double
  %12 = fmul double %11, 2.540000e+01
  %13 = getelementptr inbounds i8, ptr %8, i64 36
  %14 = load i32, ptr %13, align 4
  %15 = sitofp i32 %14 to double
  %16 = fdiv double %12, %15
  ret double %16
}